target datalayout = "e-m:e-p270:32:32-p271:32:32-p272:64:64-i64:64-i128:128-f80:128-n8:16:32:64-S128"
target triple = "x86_64-pc-linux-gnu"

%"class.WasmEdge::Loader::AOTSection" = type { %"class.WasmEdge::Executable", ptr, i64, i64, %"class.std::vector", %"class.std::vector", ptr }
%"class.WasmEdge::Executable" = type { ptr, %"class.std::enable_shared_from_this" }
%"class.std::enable_shared_from_this" = type { %"class.std::weak_ptr" }
%"class.std::weak_ptr" = type { %"class.std::__weak_ptr" }
%"class.std::__weak_ptr" = type { ptr, %"class.std::__weak_count" }
%"class.std::__weak_count" = type { ptr }
%"class.std::vector" = type { %"struct.std::_Vector_base" }
%"struct.std::_Vector_base" = type { %"struct.std::_Vector_base<unsigned long, std::allocator<unsigned long>>::_Vector_impl" }
%"struct.std::_Vector_base<unsigned long, std::allocator<unsigned long>>::_Vector_impl" = type { %"struct.std::_Vector_base<unsigned long, std::allocator<unsigned long>>::_Vector_impl_data" }
%"struct.std::_Vector_base<unsigned long, std::allocator<unsigned long>>::_Vector_impl_data" = type { ptr, ptr, ptr }

; Function Attrs: mustprogress nounwind uwtable
define void @_ZN8WasmEdge6Loader10AOTSection6unloadEv(ptr noundef nonnull align 8 dereferenceable(104) %0) #0 align 2 personality ptr @__gxx_personality_v0 {
  %2 = alloca ptr, align 8
  store ptr %0, ptr %2, align 8
  %3 = load ptr, ptr %2, align 8
  %4 = getelementptr inbounds %"class.WasmEdge::Loader::AOTSection", ptr %3, i32 0, i32 1
  %5 = load ptr, ptr %4, align 8
  %6 = icmp ne ptr %5, null
  br i1 %6, label %7, label %26

7:                                                ; preds = %1
  %8 = getelementptr inbounds %"class.WasmEdge::Loader::AOTSection", ptr %3, i32 0, i32 6
  %9 = load ptr, ptr %8, align 8
  %10 = icmp ne ptr %9, null
  br i1 %10, label %11, label %15

11:                                               ; preds = %7
  %12 = getelementptr inbounds %"class.WasmEdge::Loader::AOTSection", ptr %3, i32 0, i32 6
  %13 = load ptr, ptr %12, align 8
  invoke void @__deregister_frame(ptr noundef %13)
          to label %14 unwind label %27

14:                                               ; preds = %11
  br label %15

15:                                               ; preds = %14, %7
  %16 = getelementptr inbounds %"class.WasmEdge::Loader::AOTSection", ptr %3, i32 0, i32 1
  %17 = load ptr, ptr %16, align 8
  %18 = getelementptr inbounds %"class.WasmEdge::Loader::AOTSection", ptr %3, i32 0, i32 2
  %19 = load i64, ptr %18, align 8
  %20 = call noundef zeroext i1 @_ZN8WasmEdge9Allocator27set_chunk_readable_writableEPhm(ptr noundef %17, i64 noundef %19) #16
  %21 = getelementptr inbounds %"class.WasmEdge::Loader::AOTSection", ptr %3, i32 0, i32 1
  %22 = load ptr, ptr %21, align 8
  %23 = getelementptr inbounds %"class.WasmEdge::Loader::AOTSection", ptr %3, i32 0, i32 2
  %24 = load i64, ptr %23, align 8
  call void @_ZN8WasmEdge9Allocator13release_chunkEPhm(ptr noundef %22, i64 noundef %24) #16
  %25 = getelementptr inbounds %"class.WasmEdge::Loader::AOTSection", ptr %3, i32 0, i32 1
  store ptr null, ptr %25, align 8
  br label %26

26:                                               ; preds = %15, %1
  ret void

27:                                               ; preds = %11
  %28 = landingpad { ptr, i32 }
          catch ptr null
  %29 = extractvalue { ptr, i32 } %28, 0
  call void @__clang_call_terminate(ptr %29) #18
  unreachable
}