; Function Attrs: mustprogress nounwind uwtable
define void @_ZN8WasmEdge6Loader10AOTSection6unloadEv(ptr noundef nonnull align 8 captures(none) dereferenceable(104) %0) local_unnamed_addr #0 align 2 personality ptr @__gxx_personality_v0 {
  %2 = getelementptr inbounds nuw i8, ptr %0, i64 24
  %3 = load ptr, ptr %2, align 8
  %.not = icmp eq ptr %3, null
  br i1 %.not, label %15, label %4

4:                                                ; preds = %1
  %5 = getelementptr inbounds nuw i8, ptr %0, i64 96
  %6 = load ptr, ptr %5, align 8
  %.not1 = icmp eq ptr %6, null
  br i1 %.not1, label %8, label %7

7:                                                ; preds = %4
  invoke void @__deregister_frame(ptr noundef nonnull %6)
          to label %._crit_edge unwind label %16

._crit_edge:                                      ; preds = %7
  %.pre = load ptr, ptr %2, align 8
  br label %8

8:                                                ; preds = %._crit_edge, %4
  %9 = phi ptr [ %.pre, %._crit_edge ], [ %3, %4 ]
  %10 = getelementptr inbounds nuw i8, ptr %0, i64 32
  %11 = load i64, ptr %10, align 8
  %12 = tail call noundef zeroext i1 @_ZN8WasmEdge9Allocator27set_chunk_readable_writableEPhm(ptr noundef %9, i64 noundef %11) #19
  %13 = load ptr, ptr %2, align 8
  %14 = load i64, ptr %10, align 8
  tail call void @_ZN8WasmEdge9Allocator13release_chunkEPhm(ptr noundef %13, i64 noundef %14) #19
  store ptr null, ptr %2, align 8
  br label %15

15:                                               ; preds = %8, %1
  ret void

16:                                               ; preds = %7
  %17 = landingpad { ptr, i32 }
          catch ptr null
  %18 = extractvalue { ptr, i32 } %17, 0
  tail call void @__clang_call_terminate(ptr %18) #24
  unreachable
}